target datalayout = "e-m:e-p270:32:32-p271:32:32-p272:64:64-i64:64-i128:128-f80:128-n8:16:32:64-S128"
target triple = "x86_64-pc-linux-gnu"

%"class.cv::dnn::dnn4_v20240521::Net" = type { %"struct.cv::Ptr" }
%"struct.cv::Ptr" = type { %"class.std::shared_ptr" }
%"class.std::shared_ptr" = type { %"class.std::__shared_ptr" }
%"class.std::__shared_ptr" = type { ptr, %"class.std::__shared_count" }
%"class.std::__shared_count" = type { ptr }
%"class.cv::wechat_qrcode::SuperScale" = type <{ %"class.cv::dnn::dnn4_v20240521::Net", i8, [7 x i8] }>
%"class.cv::Mat" = type { i32, i32, i32, i32, ptr, ptr, ptr, ptr, ptr, ptr, %"struct.cv::MatSize", %"struct.cv::MatStep" }
%"struct.cv::MatSize" = type { ptr }
%"struct.cv::MatStep" = type { ptr, [2 x i64] }
%"class.cv::_InputArray" = type { i32, ptr, %"class.cv::Size_" }
%"class.cv::Size_" = type { i32, i32 }
%"class.cv::_OutputArray" = type { %"class.cv::_InputArray" }

; Function Attrs: mustprogress uwtable
define linkonce_odr hidden void @_ZN2cv11_InputArrayC2Ev(ptr noundef nonnull align 8 dereferenceable(24) %0) unnamed_addr #0 comdat align 2 {
  %2 = alloca ptr, align 8
  store ptr %0, ptr %2, align 8
  %3 = load ptr, ptr %2, align 8
  %4 = getelementptr inbounds %"class.cv::_InputArray", ptr %3, i32 0, i32 2
  call void @_ZN2cv5Size_IiEC2Ev(ptr noundef nonnull align 4 dereferenceable(8) %4)
  call void @_ZN2cv11_InputArray4initEiPKv(ptr noundef nonnull align 8 dereferenceable(24) %3, i32 noundef 0, ptr noundef null)
  ret void
}

; Function Attrs: mustprogress nounwind uwtable
define linkonce_odr hidden void @_ZN2cv11_InputArray4initEiPKv(ptr noundef nonnull align 8 dereferenceable(24) %0, i32 noundef %1, ptr noundef %2) #3 comdat align 2 {
  %4 = alloca ptr, align 8
  %5 = alloca i32, align 4
  %6 = alloca ptr, align 8
  store ptr %0, ptr %4, align 8
  store i32 %1, ptr %5, align 4
  store ptr %2, ptr %6, align 8
  %7 = load ptr, ptr %4, align 8
  %8 = load i32, ptr %5, align 4
  %9 = getelementptr inbounds %"class.cv::_InputArray", ptr %7, i32 0, i32 0
  store i32 %8, ptr %9, align 8
  %10 = load ptr, ptr %6, align 8
  %11 = getelementptr inbounds %"class.cv::_InputArray", ptr %7, i32 0, i32 1
  store ptr %10, ptr %11, align 8
  ret void
}

; Function Attrs: mustprogress nounwind uwtable
define linkonce_odr hidden void @_ZN2cv11_InputArrayD2Ev(ptr noundef nonnull align 8 dereferenceable(24) %0) unnamed_addr #3 comdat align 2 {
  %2 = alloca ptr, align 8
  store ptr %0, ptr %2, align 8
  ret void
}

; Function Attrs: mustprogress nounwind uwtable
define linkonce_odr hidden void @_ZN2cv12_OutputArrayD2Ev(ptr noundef nonnull align 8 dereferenceable(24) %0) unnamed_addr #3 comdat align 2 {
  %2 = alloca ptr, align 8
  store ptr %0, ptr %2, align 8
  %3 = load ptr, ptr %2, align 8
  call void @_ZN2cv11_InputArrayD2Ev(ptr noundef nonnull align 8 dereferenceable(24) %3) #5
  ret void
}

; Function Attrs: mustprogress nounwind uwtable
define linkonce_odr hidden void @_ZN2cv5Size_IiEC2Ev(ptr noundef nonnull align 4 dereferenceable(8) %0) unnamed_addr #3 comdat align 2 {
  %2 = alloca ptr, align 8
  store ptr %0, ptr %2, align 8
  %3 = load ptr, ptr %2, align 8
  %4 = getelementptr inbounds %"class.cv::Size_", ptr %3, i32 0, i32 0
  store i32 0, ptr %4, align 4
  %5 = getelementptr inbounds %"class.cv::Size_", ptr %3, i32 0, i32 1
  store i32 0, ptr %5, align 4
  ret void
}

; Function Attrs: mustprogress uwtable
define linkonce_odr hidden void @_ZN2cv12_OutputArrayC2ERNS_3MatE(ptr noundef nonnull align 8 dereferenceable(24) %0, ptr noundef nonnull align 8 dereferenceable(96) %1) unnamed_addr #0 comdat align 2 {
  %3 = alloca ptr, align 8
  %4 = alloca ptr, align 8
  store ptr %0, ptr %3, align 8
  store ptr %1, ptr %4, align 8
  %5 = load ptr, ptr %3, align 8
  call void @_ZN2cv11_InputArrayC2Ev(ptr noundef nonnull align 8 dereferenceable(24) %5)
  %6 = load ptr, ptr %4, align 8
  call void @_ZN2cv11_InputArray4initEiPKv(ptr noundef nonnull align 8 dereferenceable(24) %5, i32 noundef 33619968, ptr noundef %6)
  ret void
}

; Function Attrs: mustprogress uwtable
define linkonce_odr hidden void @_ZN2cv11_InputArrayC2ERKNS_3MatE(ptr noundef nonnull align 8 dereferenceable(24) %0, ptr noundef nonnull align 8 dereferenceable(96) %1) unnamed_addr #0 comdat align 2 {
  %3 = alloca ptr, align 8
  %4 = alloca ptr, align 8
  store ptr %0, ptr %3, align 8
  store ptr %1, ptr %4, align 8
  %5 = load ptr, ptr %3, align 8
  %6 = getelementptr inbounds %"class.cv::_InputArray", ptr %5, i32 0, i32 2
  call void @_ZN2cv5Size_IiEC2Ev(ptr noundef nonnull align 4 dereferenceable(8) %6)
  %7 = load ptr, ptr %4, align 8
  call void @_ZN2cv11_InputArray4initEiPKv(ptr noundef nonnull align 8 dereferenceable(24) %5, i32 noundef 16842752, ptr noundef %7)
  ret void
}

; Function Attrs: mustprogress uwtable
define hidden void @_ZN2cv13wechat_qrcode10SuperScale17processImageScaleERKNS_3MatEfRKbi(ptr dead_on_unwind noalias writable sret(%"class.cv::Mat") align 8 %0, ptr noundef nonnull align 8 dereferenceable(17) %1, ptr noundef nonnull align 8 dereferenceable(96) %2, float noundef %3, ptr noundef nonnull align 1 dereferenceable(1) %4, i32 noundef %5) #0 align 2 personality ptr @__gxx_personality_v0 {
  %7 = alloca ptr, align 8
  %8 = alloca ptr, align 8
  %9 = alloca ptr, align 8
  %10 = alloca float, align 4
  %11 = alloca ptr, align 8
  %12 = alloca i32, align 4
  %13 = alloca i1, align 1
  %14 = alloca i32, align 4
  %15 = alloca i32, align 4
  %16 = alloca i32, align 4
  %17 = alloca i32, align 4
  %18 = alloca i32, align 4
  %19 = alloca ptr, align 8
  %20 = alloca i32, align 4
  %21 = alloca %"class.cv::_InputArray", align 8
  %22 = alloca %"class.cv::_OutputArray", align 8
  %23 = alloca %"class.cv::Size_", align 4
  %24 = alloca %"class.cv::_InputArray", align 8
  %25 = alloca %"class.cv::_OutputArray", align 8
  %26 = alloca %"class.cv::Size_", align 4
  store ptr %0, ptr %7, align 8
  store ptr %1, ptr %8, align 8
  store ptr %2, ptr %9, align 8
  store float %3, ptr %10, align 4
  store ptr %4, ptr %11, align 8
  store i32 %5, ptr %12, align 4
  %27 = load ptr, ptr %8, align 8
  store i1 false, ptr %13, align 1
  %28 = load ptr, ptr %9, align 8
  call void @_ZN2cv3MatC1ERKS0_(ptr noundef nonnull align 8 dereferenceable(96) %0, ptr noundef nonnull align 8 dereferenceable(96) %28)
  %29 = load float, ptr %10, align 4
  %30 = fpext float %29 to double
  %31 = fcmp oeq double %30, 1.000000e+00
  br i1 %31, label %32, label %33

32:                                               ; preds = %6
  store i1 true, ptr %13, align 1
  store i32 1, ptr %14, align 4
  br label %120

33:                                               ; preds = %6
  %34 = load ptr, ptr %9, align 8
  %35 = getelementptr inbounds %"class.cv::Mat", ptr %34, i32 0, i32 3
  %36 = load i32, ptr %35, align 4
  store i32 %36, ptr %15, align 4
  %37 = load ptr, ptr %9, align 8
  %38 = getelementptr inbounds %"class.cv::Mat", ptr %37, i32 0, i32 2
  %39 = load i32, ptr %38, align 8
  store i32 %39, ptr %16, align 4
  %40 = load float, ptr %10, align 4
  %41 = fpext float %40 to double
  %42 = fcmp oeq double %41, 2.000000e+00
  br i1 %42, label %43, label %94

43:                                               ; preds = %33
  %44 = load i32, ptr %12, align 4
  store i32 %44, ptr %17, align 4
  %45 = load ptr, ptr %11, align 8
  %46 = load i8, ptr %45, align 1
  %47 = trunc i8 %46 to i1
  br i1 %47, label %48, label %74

48:                                               ; preds = %43
  %49 = load i32, ptr %15, align 4
  %50 = load i32, ptr %16, align 4
  %51 = mul nsw i32 %49, %50
  %52 = sitofp i32 %51 to double
  %53 = fmul double %52, 1.000000e+00
  %54 = call double @sqrt(double noundef %53) #5
  %55 = fptosi double %54 to i32
  %56 = load i32, ptr %17, align 4
  %57 = icmp slt i32 %55, %56
  br i1 %57, label %58, label %74

58:                                               ; preds = %48
  %59 = getelementptr inbounds %"class.cv::wechat_qrcode::SuperScale", ptr %27, i32 0, i32 1
  %60 = load i8, ptr %59, align 8
  %61 = trunc i8 %60 to i1
  br i1 %61, label %62, label %74

62:                                               ; preds = %58
  %63 = load ptr, ptr %9, align 8
  %64 = invoke noundef i32 @_ZN2cv13wechat_qrcode10SuperScale19superResoutionScaleERKNS_3MatERS2_(ptr noundef nonnull align 8 dereferenceable(17) %27, ptr noundef nonnull align 8 dereferenceable(96) %63, ptr noundef nonnull align 8 dereferenceable(96) %0)
          to label %65 unwind label %69

65:                                               ; preds = %62
  store i32 %64, ptr %18, align 4
  %66 = load i32, ptr %18, align 4
  %67 = icmp eq i32 %66, 0
  br i1 %67, label %68, label %73

68:                                               ; preds = %65
  store i1 true, ptr %13, align 1
  store i32 1, ptr %14, align 4
  br label %120

69:                                               ; preds = %98, %74, %62
  %70 = landingpad { ptr, i32 }
          cleanup
  %71 = extractvalue { ptr, i32 } %70, 0
  store ptr %71, ptr %19, align 8
  %72 = extractvalue { ptr, i32 } %70, 1
  store i32 %72, ptr %20, align 4
  br label %124

73:                                               ; preds = %65
  br label %74

74:                                               ; preds = %73, %58, %48, %43
  %75 = load ptr, ptr %9, align 8
  invoke void @_ZN2cv11_InputArrayC2ERKNS_3MatE(ptr noundef nonnull align 8 dereferenceable(24) %21, ptr noundef nonnull align 8 dereferenceable(96) %75)
          to label %76 unwind label %69

76:                                               ; preds = %74
  invoke void @_ZN2cv12_OutputArrayC2ERNS_3MatE(ptr noundef nonnull align 8 dereferenceable(24) %22, ptr noundef nonnull align 8 dereferenceable(96) %0)
          to label %77 unwind label %85

77:                                               ; preds = %76
  invoke void @_ZN2cv5Size_IiEC2Ev(ptr noundef nonnull align 4 dereferenceable(8) %23)
          to label %78 unwind label %89

78:                                               ; preds = %77
  %79 = load float, ptr %10, align 4
  %80 = fpext float %79 to double
  %81 = load float, ptr %10, align 4
  %82 = fpext float %81 to double
  %83 = load i64, ptr %23, align 4
  invoke void @_ZN2cv6resizeERKNS_11_InputArrayERKNS_12_OutputArrayENS_5Size_IiEEddi(ptr noundef nonnull align 8 dereferenceable(24) %21, ptr noundef nonnull align 8 dereferenceable(24) %22, i64 %83, double noundef %80, double noundef %82, i32 noundef 2)
          to label %84 unwind label %89

84:                                               ; preds = %78
  call void @_ZN2cv12_OutputArrayD2Ev(ptr noundef nonnull align 8 dereferenceable(24) %22) #5
  call void @_ZN2cv11_InputArrayD2Ev(ptr noundef nonnull align 8 dereferenceable(24) %21) #5
  br label %119

85:                                               ; preds = %76
  %86 = landingpad { ptr, i32 }
          cleanup
  %87 = extractvalue { ptr, i32 } %86, 0
  store ptr %87, ptr %19, align 8
  %88 = extractvalue { ptr, i32 } %86, 1
  store i32 %88, ptr %20, align 4
  br label %93

89:                                               ; preds = %78, %77
  %90 = landingpad { ptr, i32 }
          cleanup
  %91 = extractvalue { ptr, i32 } %90, 0
  store ptr %91, ptr %19, align 8
  %92 = extractvalue { ptr, i32 } %90, 1
  store i32 %92, ptr %20, align 4
  call void @_ZN2cv12_OutputArrayD2Ev(ptr noundef nonnull align 8 dereferenceable(24) %22) #5
  br label %93

93:                                               ; preds = %89, %85
  call void @_ZN2cv11_InputArrayD2Ev(ptr noundef nonnull align 8 dereferenceable(24) %21) #5
  br label %124

94:                                               ; preds = %33
  %95 = load float, ptr %10, align 4
  %96 = fpext float %95 to double
  %97 = fcmp olt double %96, 1.000000e+00
  br i1 %97, label %98, label %118

98:                                               ; preds = %94
  %99 = load ptr, ptr %9, align 8
  invoke void @_ZN2cv11_InputArrayC2ERKNS_3MatE(ptr noundef nonnull align 8 dereferenceable(24) %24, ptr noundef nonnull align 8 dereferenceable(96) %99)
          to label %100 unwind label %69

100:                                              ; preds = %98
  invoke void @_ZN2cv12_OutputArrayC2ERNS_3MatE(ptr noundef nonnull align 8 dereferenceable(24) %25, ptr noundef nonnull align 8 dereferenceable(96) %0)
          to label %101 unwind label %109

101:                                              ; preds = %100
  invoke void @_ZN2cv5Size_IiEC2Ev(ptr noundef nonnull align 4 dereferenceable(8) %26)
          to label %102 unwind label %113

102:                                              ; preds = %101
  %103 = load float, ptr %10, align 4
  %104 = fpext float %103 to double
  %105 = load float, ptr %10, align 4
  %106 = fpext float %105 to double
  %107 = load i64, ptr %26, align 4
  invoke void @_ZN2cv6resizeERKNS_11_InputArrayERKNS_12_OutputArrayENS_5Size_IiEEddi(ptr noundef nonnull align 8 dereferenceable(24) %24, ptr noundef nonnull align 8 dereferenceable(24) %25, i64 %107, double noundef %104, double noundef %106, i32 noundef 3)
          to label %108 unwind label %113

108:                                              ; preds = %102
  call void @_ZN2cv12_OutputArrayD2Ev(ptr noundef nonnull align 8 dereferenceable(24) %25) #5
  call void @_ZN2cv11_InputArrayD2Ev(ptr noundef nonnull align 8 dereferenceable(24) %24) #5
  br label %118

109:                                              ; preds = %100
  %110 = landingpad { ptr, i32 }
          cleanup
  %111 = extractvalue { ptr, i32 } %110, 0
  store ptr %111, ptr %19, align 8
  %112 = extractvalue { ptr, i32 } %110, 1
  store i32 %112, ptr %20, align 4
  br label %117

113:                                              ; preds = %102, %101
  %114 = landingpad { ptr, i32 }
          cleanup
  %115 = extractvalue { ptr, i32 } %114, 0
  store ptr %115, ptr %19, align 8
  %116 = extractvalue { ptr, i32 } %114, 1
  store i32 %116, ptr %20, align 4
  call void @_ZN2cv12_OutputArrayD2Ev(ptr noundef nonnull align 8 dereferenceable(24) %25) #5
  br label %117

117:                                              ; preds = %113, %109
  call void @_ZN2cv11_InputArrayD2Ev(ptr noundef nonnull align 8 dereferenceable(24) %24) #5
  br label %124

118:                                              ; preds = %108, %94
  br label %119

119:                                              ; preds = %118, %84
  store i1 true, ptr %13, align 1
  store i32 1, ptr %14, align 4
  br label %120

120:                                              ; preds = %119, %68, %32
  %121 = load i1, ptr %13, align 1
  br i1 %121, label %123, label %122

122:                                              ; preds = %120
  call void @_ZN2cv3MatD1Ev(ptr noundef nonnull align 8 dereferenceable(96) %0) #5
  br label %123

123:                                              ; preds = %122, %120
  ret void

124:                                              ; preds = %117, %93, %69
  call void @_ZN2cv3MatD1Ev(ptr noundef nonnull align 8 dereferenceable(96) %0) #5
  br label %125

125:                                              ; preds = %124
  %126 = load ptr, ptr %19, align 8
  %127 = load i32, ptr %20, align 4
  %128 = insertvalue { ptr, i32 } poison, ptr %126, 0
  %129 = insertvalue { ptr, i32 } %128, i32 %127, 1
  resume { ptr, i32 } %129
}