; Function Attrs: mustprogress uwtable
define hidden void @_ZN2cv13wechat_qrcode10SuperScale17processImageScaleERKNS_3MatEfRKbi(ptr dead_on_unwind noalias nonnull writable sret(%"class.cv::Mat") align 8 %0, ptr noundef nonnull align 8 dereferenceable(17) %1, ptr noundef nonnull align 8 dereferenceable(96) %2, float noundef %3, ptr nocapture noundef nonnull readonly align 1 dereferenceable(1) %4, i32 noundef %5) local_unnamed_addr #0 align 2 personality ptr @__gxx_personality_v0 {
  %7 = alloca %"class.cv::_InputArray", align 8
  %8 = alloca %"class.cv::_OutputArray", align 8
  %9 = alloca %"class.cv::_InputArray", align 8
  %10 = alloca %"class.cv::_OutputArray", align 8
  tail call void @_ZN2cv3MatC1ERKS0_(ptr noundef nonnull align 8 dereferenceable(96) %0, ptr noundef nonnull align 8 dereferenceable(96) %2)
  %11 = fpext float %3 to double
  %12 = fcmp oeq float %3, 1.000000e+00
  br i1 %12, label %54, label %13

13:                                               ; preds = %6
  %14 = getelementptr inbounds i8, ptr %2, i64 12
  %15 = load i32, ptr %14, align 4
  %16 = getelementptr inbounds i8, ptr %2, i64 8
  %17 = load i32, ptr %16, align 8
  %18 = fcmp oeq float %3, 2.000000e+00
  br i1 %18, label %19, label %44

19:                                               ; preds = %13
  %20 = load i8, ptr %4, align 1
  %21 = trunc i8 %20 to i1
  br i1 %21, label %22, label %36

22:                                               ; preds = %19
  %23 = mul nsw i32 %17, %15
  %24 = sitofp i32 %23 to double
  %25 = tail call double @sqrt(double noundef %24) #5
  %26 = fptosi double %25 to i32
  %27 = icmp slt i32 %26, %5
  br i1 %27, label %28, label %36

28:                                               ; preds = %22
  %29 = getelementptr inbounds i8, ptr %1, i64 16
  %30 = load i8, ptr %29, align 8
  %31 = trunc i8 %30 to i1
  br i1 %31, label %32, label %36

32:                                               ; preds = %28
  %33 = invoke noundef i32 @_ZN2cv13wechat_qrcode10SuperScale19superResoutionScaleERKNS_3MatERS2_(ptr noundef nonnull align 8 dereferenceable(17) %1, ptr noundef nonnull align 8 dereferenceable(96) %2, ptr noundef nonnull align 8 dereferenceable(96) %0)
          to label %54 unwind label %34

34:                                               ; preds = %32
  %35 = landingpad { ptr, i32 }
          cleanup
  br label %55

36:                                               ; preds = %28, %22, %19
  %37 = getelementptr inbounds i8, ptr %7, i64 16
  store i32 0, ptr %37, align 8
  %38 = getelementptr inbounds i8, ptr %7, i64 20
  store i32 0, ptr %38, align 4
  store i32 16842752, ptr %7, align 8
  %39 = getelementptr inbounds i8, ptr %7, i64 8
  store ptr %2, ptr %39, align 8
  %40 = getelementptr inbounds i8, ptr %8, i64 8
  %41 = getelementptr inbounds i8, ptr %8, i64 16
  store i64 0, ptr %41, align 8
  store i32 33619968, ptr %8, align 8
  store ptr %0, ptr %40, align 8
  invoke void @_ZN2cv6resizeERKNS_11_InputArrayERKNS_12_OutputArrayENS_5Size_IiEEddi(ptr noundef nonnull align 8 dereferenceable(24) %7, ptr noundef nonnull align 8 dereferenceable(24) %8, i64 0, double noundef %11, double noundef %11, i32 noundef 2)
          to label %54 unwind label %42

42:                                               ; preds = %36
  %43 = landingpad { ptr, i32 }
          cleanup
  br label %55

44:                                               ; preds = %13
  %45 = fcmp olt float %3, 1.000000e+00
  br i1 %45, label %46, label %54

46:                                               ; preds = %44
  %47 = getelementptr inbounds i8, ptr %9, i64 16
  store i32 0, ptr %47, align 8
  %48 = getelementptr inbounds i8, ptr %9, i64 20
  store i32 0, ptr %48, align 4
  store i32 16842752, ptr %9, align 8
  %49 = getelementptr inbounds i8, ptr %9, i64 8
  store ptr %2, ptr %49, align 8
  %50 = getelementptr inbounds i8, ptr %10, i64 8
  %51 = getelementptr inbounds i8, ptr %10, i64 16
  store i64 0, ptr %51, align 8
  store i32 33619968, ptr %10, align 8
  store ptr %0, ptr %50, align 8
  invoke void @_ZN2cv6resizeERKNS_11_InputArrayERKNS_12_OutputArrayENS_5Size_IiEEddi(ptr noundef nonnull align 8 dereferenceable(24) %9, ptr noundef nonnull align 8 dereferenceable(24) %10, i64 0, double noundef %11, double noundef %11, i32 noundef 3)
          to label %54 unwind label %52

52:                                               ; preds = %46
  %53 = landingpad { ptr, i32 }
          cleanup
  br label %55

54:                                               ; preds = %46, %36, %6, %32, %44
  ret void

55:                                               ; preds = %52, %42, %34
  %.pn28.pn = phi { ptr, i32 } [ %35, %34 ], [ %43, %42 ], [ %53, %52 ]
  call void @_ZN2cv3MatD1Ev(ptr noundef nonnull align 8 dereferenceable(96) %0) #5
  resume { ptr, i32 } %.pn28.pn
}